; Function Attrs: mustprogress uwtable
define hidden void @_ZN3sls15datatype_plugin10initializeEv(ptr noundef nonnull align 8 dereferenceable(240) %0) unnamed_addr #3 align 2 personality ptr @__gxx_personality_v0 {
  %2 = alloca %struct.sls_params, align 8
  call void @llvm.lifetime.start.p0(i64 16, ptr nonnull %2) #21
  %3 = getelementptr inbounds nuw i8, ptr %0, i64 8
  %4 = load ptr, ptr %3, align 8, !tbaa !92
  %5 = getelementptr inbounds nuw i8, ptr %4, i64 96
  store ptr %5, ptr %2, align 8, !tbaa !174
  %6 = getelementptr inbounds nuw i8, ptr %2, i64 8
  call void @_ZN7gparams10get_moduleEPKc(ptr dead_on_unwind nonnull writable sret(%class.params_ref) align 8 %6, ptr noundef nonnull @.str.11)
  %7 = load ptr, ptr %2, align 8, !tbaa !176
  %8 = invoke noundef zeroext i1 @_ZNK10params_ref8get_boolEPKcRKS_b(ptr noundef nonnull align 8 dereferenceable(8) %7, ptr noundef nonnull @.str.12, ptr noundef nonnull align 8 dereferenceable(8) %6, i1 noundef zeroext true)
          to label %_ZNK10sls_params12dt_axiomaticEv.exit unwind label %12

_ZNK10sls_params12dt_axiomaticEv.exit:            ; preds = %1
  %9 = getelementptr inbounds nuw i8, ptr %0, i64 96
  %10 = zext i1 %8 to i8
  store i8 %10, ptr %9, align 8, !tbaa !25
  br i1 %8, label %11, label %14

11:                                               ; preds = %_ZNK10sls_params12dt_axiomaticEv.exit
  invoke void @_ZN3sls15datatype_plugin10add_axiomsEv(ptr noundef nonnull align 8 dereferenceable(240) %0)
          to label %14 unwind label %12

12:                                               ; preds = %1, %11
  %13 = landingpad { ptr, i32 }
          cleanup
  call void @_ZN10params_refD1Ev(ptr noundef nonnull align 8 dereferenceable(8) %6) #21
  call void @llvm.lifetime.end.p0(i64 16, ptr nonnull %2) #21
  resume { ptr, i32 } %13

14:                                               ; preds = %11, %_ZNK10sls_params12dt_axiomaticEv.exit
  call void @_ZN10params_refD1Ev(ptr noundef nonnull align 8 dereferenceable(8) %6) #21
  call void @llvm.lifetime.end.p0(i64 16, ptr nonnull %2) #21
  ret void
}